; Function Attrs: nounwind sspstrong uwtable
define internal noundef i64 @addrinfo_s_ip(i64 %0, i64 noundef %1) #0 {
  %3 = tail call fastcc i64 @addrinfo_firstonly_new(i64 noundef %1, i64 noundef 4, i64 noundef 1, i64 noundef 1, i64 noundef 1)
  %4 = tail call ptr @rb_check_typeddata(i64 noundef %3, ptr noundef nonnull @addrinfo_type) #21
  %.not.i = icmp eq ptr %4, null
  br i1 %.not.i, label %5, label %get_addrinfo.exit

5:                                                ; preds = %2
  %6 = load i64, ptr @rb_eTypeError, align 8, !tbaa !35
  tail call void (i64, ptr, ...) @rb_raise(i64 noundef %6, ptr noundef nonnull @.str.101) #23
  unreachable

get_addrinfo.exit:                                ; preds = %2
  %7 = getelementptr inbounds nuw i8, ptr %4, i64 20
  store i32 0, ptr %7, align 4, !tbaa !120
  %8 = getelementptr inbounds nuw i8, ptr %4, i64 24
  store i32 0, ptr %8, align 8, !tbaa !121
  ret i64 %3
}